; Function Attrs: mustprogress uwtable
define hidden void @_ZN3ue214getUcpBopomofoEv(ptr dead_on_unwind noalias writable sret(%"class.ue2::CodePointSet") align 8 initializes((8, 12), (16, 24)) %0) local_unnamed_addr #0 personality ptr @__gxx_personality_v0 {
  %2 = alloca %"class.boost::icl::closed_interval", align 4
  %3 = getelementptr inbounds nuw i8, ptr %0, i64 8
  store i32 0, ptr %3, align 8
  %4 = getelementptr inbounds nuw i8, ptr %0, i64 16
  store ptr null, ptr %4, align 8
  %5 = getelementptr inbounds nuw i8, ptr %0, i64 24
  store ptr %3, ptr %5, align 8
  %6 = getelementptr inbounds nuw i8, ptr %0, i64 32
  store ptr %3, ptr %6, align 8
  %7 = getelementptr inbounds nuw i8, ptr %0, i64 40
  store i64 0, ptr %7, align 8
  %8 = getelementptr inbounds nuw i8, ptr %2, i64 4
  br label %9

9:                                                ; preds = %1, %16
  %indvars.iv = phi i64 [ 0, %1 ], [ %indvars.iv.next, %16 ]
  %10 = getelementptr inbounds nuw [6 x i32], ptr @_ZN3ue2L16ucp_Bopomofo_defE, i64 0, i64 %indvars.iv
  %11 = load i32, ptr %10, align 8
  %12 = or disjoint i64 %indvars.iv, 1
  %13 = getelementptr inbounds nuw [6 x i32], ptr @_ZN3ue2L16ucp_Bopomofo_defE, i64 0, i64 %12
  %14 = load i32, ptr %13, align 4
  call void @llvm.lifetime.start.p0(i64 8, ptr nonnull %2) #14
  store i32 %11, ptr %2, align 4
  store i32 %14, ptr %8, align 4
  %15 = invoke ptr @_ZN5boost3icl17interval_base_setINS0_12interval_setIjSt4lessNS0_15closed_intervalIjS3_EESaEEjS3_S5_SaE4_addERKS5_(ptr noundef nonnull align 8 dereferenceable(48) %0, ptr noundef nonnull align 4 dereferenceable(8) %2)
          to label %16 unwind label %18

16:                                               ; preds = %9
  call void @llvm.lifetime.end.p0(i64 8, ptr nonnull %2) #14
  %indvars.iv.next = add nuw nsw i64 %indvars.iv, 2
  %17 = icmp samesign ult i64 %indvars.iv, 4
  br i1 %17, label %9, label %20, !llvm.loop !53

18:                                               ; preds = %9
  %19 = landingpad { ptr, i32 }
          cleanup
  call void @_ZN3ue212CodePointSetD2Ev(ptr noundef nonnull align 8 dereferenceable(48) %0) #14
  resume { ptr, i32 } %19

20:                                               ; preds = %16
  ret void
}